; Function Attrs: nounwind sspstrong uwtable
define internal i64 @rb_struct_select(i32 noundef %0, ptr readnone captures(none) %1, i64 noundef %2) #0 {
  %.not17 = icmp eq i32 %0, 0
  br i1 %.not17, label %rb_check_arity.exit, label %4

4:                                                ; preds = %3
  tail call void @rb_error_arity(i32 noundef %0, i32 noundef 0, i32 noundef 0) #21
  unreachable

rb_check_arity.exit:                              ; preds = %3
  %5 = tail call i32 @rb_block_given_p() #19
  %.not = icmp eq i32 %5, 0
  br i1 %.not, label %6, label %10

6:                                                ; preds = %rb_check_arity.exit
  %7 = tail call i64 @rb_frame_this_func() #19
  %8 = tail call i64 @rb_id2sym(i64 noundef %7) #19
  %9 = tail call i64 @rb_enumeratorize_with_size(i64 noundef %2, i64 noundef %8, i32 noundef 0, ptr noundef null, ptr noundef nonnull @struct_enum_size) #19
  br label %.loopexit

10:                                               ; preds = %rb_check_arity.exit
  %11 = tail call i64 @rb_ary_new() #19
  %12 = inttoptr i64 %2 to ptr
  %13 = getelementptr inbounds nuw i8, ptr %12, i64 16
  %14 = getelementptr inbounds nuw i8, ptr %12, i64 24
  br label %15

15:                                               ; preds = %37, %10
  %.0 = phi i64 [ 0, %10 ], [ %38, %37 ]
  %16 = load i64, ptr %12, align 8, !tbaa !11
  %17 = and i64 %16, 1040384
  %.not.i = icmp eq i64 %17, 0
  br i1 %.not.i, label %internal_RSTRUCT_LEN.exit, label %internal_RSTRUCT_LEN.exit.thread

internal_RSTRUCT_LEN.exit:                        ; preds = %15
  %18 = load i64, ptr %13, align 8, !tbaa !13
  %19 = icmp slt i64 %.0, %18
  br i1 %19, label %23, label %.loopexit

internal_RSTRUCT_LEN.exit.thread:                 ; preds = %15
  %20 = lshr i64 %16, 13
  %21 = and i64 %20, 127
  %22 = icmp samesign ult i64 %.0, %21
  br i1 %22, label %internal_RSTRUCT_GET.exit, label %.loopexit

23:                                               ; preds = %internal_RSTRUCT_LEN.exit
  %24 = load ptr, ptr %14, align 8, !tbaa !13
  br label %internal_RSTRUCT_GET.exit

internal_RSTRUCT_GET.exit:                        ; preds = %internal_RSTRUCT_LEN.exit.thread, %23
  %.0.i.i = phi ptr [ %24, %23 ], [ %13, %internal_RSTRUCT_LEN.exit.thread ]
  %25 = getelementptr i64, ptr %.0.i.i, i64 %.0
  %26 = load i64, ptr %25, align 8, !tbaa !7
  %27 = tail call i64 @rb_yield(i64 noundef %26) #19
  %28 = and i64 %27, -5
  %.not18 = icmp eq i64 %28, 0
  br i1 %.not18, label %37, label %29

29:                                               ; preds = %internal_RSTRUCT_GET.exit
  %30 = load i64, ptr %12, align 8, !tbaa !11
  %31 = and i64 %30, 1040384
  %.not.i.i13 = icmp eq i64 %31, 0
  br i1 %.not.i.i13, label %32, label %internal_RSTRUCT_GET.exit15

32:                                               ; preds = %29
  %33 = load ptr, ptr %14, align 8, !tbaa !13
  br label %internal_RSTRUCT_GET.exit15

internal_RSTRUCT_GET.exit15:                      ; preds = %29, %32
  %.0.i.i14 = phi ptr [ %33, %32 ], [ %13, %29 ]
  %34 = getelementptr i64, ptr %.0.i.i14, i64 %.0
  %35 = load i64, ptr %34, align 8, !tbaa !7
  %36 = tail call i64 @rb_ary_push(i64 noundef %11, i64 noundef %35) #19
  br label %37

37:                                               ; preds = %internal_RSTRUCT_GET.exit, %internal_RSTRUCT_GET.exit15
  %38 = add nuw nsw i64 %.0, 1
  br label %15, !llvm.loop !50

.loopexit:                                        ; preds = %internal_RSTRUCT_LEN.exit.thread, %internal_RSTRUCT_LEN.exit, %6
  %.012 = phi i64 [ %9, %6 ], [ %11, %internal_RSTRUCT_LEN.exit ], [ %11, %internal_RSTRUCT_LEN.exit.thread ]
  ret i64 %.012
}